target datalayout = "e-m:e-p270:32:32-p271:32:32-p272:64:64-i64:64-i128:128-f80:128-n8:16:32:64-S128"
target triple = "x86_64-pc-linux-gnu"

%struct.H5HF_sect_add_ud_t = type { ptr }
%struct.H5HF_free_section_t = type { %struct.H5FS_section_info_t, %union.anon }
%struct.H5FS_section_info_t = type { i64, i64, i32, i32 }
%union.anon = type { %struct.anon.1 }
%struct.anon.1 = type { %union.anon.2, i32, i32, i32, ptr, i32, i64, i32, i32, i32, ptr, i32, ptr }
%union.anon.2 = type { ptr }
%struct.H5HF_hdr_t = type { %struct.H5C_cache_entry_t, i32, i32, i8, i8, i8, i8, %struct.H5HF_dtable_t, i64, i64, i32, i64, i64, %struct.H5O_pline_t, i64, i32, i64, i64, i64, i64, i64, i64, i64, i64, i64, i64, i64, i32, ptr, i64, i8, i8, i8, ptr, i32, ptr, %struct.H5HF_block_iter_t, ptr, i64, i8, i8, i64, i8, i8, i8, i8 }
%struct.H5C_cache_entry_t = type { ptr, i64, i64, ptr, i8, ptr, i8, i8, i8, i8, i32, i8, i8, i8, i8, i8, i32, ptr, i32, i32, i32, i32, i32, i8, i8, ptr, ptr, ptr, ptr, ptr, ptr, i8, i32, i8, i64, ptr, i64, i64, i32, i8, i32, i32, i8, ptr, ptr, ptr }
%struct.H5HF_dtable_t = type { %struct.H5HF_dtable_cparam_t, i64, i32, i32, i32, i32, i32, i32, i32, i64, ptr, ptr, ptr, ptr }
%struct.H5HF_dtable_cparam_t = type { i32, i64, i64, i32, i32 }
%struct.H5O_pline_t = type { %struct.H5O_shared_t, i32, i64, i64, ptr }
%struct.H5O_shared_t = type { i32, ptr, i32, %union.anon.3 }
%union.anon.3 = type { %struct.H5O_mesg_loc_t }
%struct.H5O_mesg_loc_t = type { i32, i64 }
%struct.H5HF_block_iter_t = type { i8, ptr }

@H5HF_init_g = external global i8, align 1
@H5_libterm_g = external global i8, align 1

; Function Attrs: nounwind uwtable
define internal i32 @H5HF__sect_single_can_shrink(ptr noundef %0, ptr noundef %1) #0 {
  %3 = alloca i32, align 4
  %4 = alloca ptr, align 8
  %5 = alloca ptr, align 8
  %6 = alloca ptr, align 8
  %7 = alloca ptr, align 8
  %8 = alloca ptr, align 8
  %9 = alloca i32, align 4
  %10 = alloca i64, align 8
  %11 = alloca i64, align 8
  %12 = alloca i32, align 4
  store ptr %0, ptr %4, align 8, !tbaa !34
  store ptr %1, ptr %5, align 8, !tbaa !10
  call void @llvm.lifetime.start.p0(i64 8, ptr %6) #7
  %13 = load ptr, ptr %4, align 8, !tbaa !34
  store ptr %13, ptr %6, align 8, !tbaa !23
  call void @llvm.lifetime.start.p0(i64 8, ptr %7) #7
  %14 = load ptr, ptr %5, align 8, !tbaa !10
  store ptr %14, ptr %7, align 8, !tbaa !10
  call void @llvm.lifetime.start.p0(i64 8, ptr %8) #7
  %15 = load ptr, ptr %7, align 8, !tbaa !10
  %16 = getelementptr inbounds nuw %struct.H5HF_sect_add_ud_t, ptr %15, i32 0, i32 0
  %17 = load ptr, ptr %16, align 8, !tbaa !19
  store ptr %17, ptr %8, align 8, !tbaa !22
  call void @llvm.lifetime.start.p0(i64 4, ptr %9) #7
  store i32 0, ptr %9, align 4, !tbaa !11
  %18 = load i8, ptr @H5HF_init_g, align 1, !tbaa !13, !range !15, !noundef !16
  %19 = trunc i8 %18 to i1
  br i1 %19, label %24, label %20

20:                                               ; preds = %2
  %21 = load i8, ptr @H5_libterm_g, align 1, !tbaa !13, !range !15, !noundef !16
  %22 = trunc i8 %21 to i1
  %23 = xor i1 %22, true
  br label %24

24:                                               ; preds = %20, %2
  %25 = phi i1 [ true, %2 ], [ %23, %20 ]
  %26 = xor i1 %25, true
  %27 = xor i1 %26, true
  %28 = zext i1 %27 to i32
  %29 = sext i32 %28 to i64
  %30 = call i64 @llvm.expect.i64(i64 %29, i64 1)
  %31 = icmp ne i64 %30, 0
  br i1 %31, label %32, label %83

32:                                               ; preds = %24
  %33 = load ptr, ptr %8, align 8, !tbaa !22
  %34 = getelementptr inbounds nuw %struct.H5HF_hdr_t, ptr %33, i32 0, i32 7
  %35 = getelementptr inbounds nuw %struct.H5HF_dtable_t, ptr %34, i32 0, i32 2
  %36 = load i32, ptr %35, align 8, !tbaa !39
  %37 = icmp eq i32 %36, 0
  br i1 %37, label %38, label %77

38:                                               ; preds = %32
  call void @llvm.lifetime.start.p0(i64 8, ptr %10) #7
  call void @llvm.lifetime.start.p0(i64 8, ptr %11) #7
  %39 = load ptr, ptr %8, align 8, !tbaa !22
  %40 = getelementptr inbounds nuw %struct.H5HF_hdr_t, ptr %39, i32 0, i32 7
  %41 = getelementptr inbounds nuw %struct.H5HF_dtable_t, ptr %40, i32 0, i32 0
  %42 = getelementptr inbounds nuw %struct.H5HF_dtable_cparam_t, ptr %41, i32 0, i32 1
  %43 = load i64, ptr %42, align 8, !tbaa !59
  store i64 %43, ptr %10, align 8, !tbaa !25
  %44 = load ptr, ptr %8, align 8, !tbaa !22
  %45 = getelementptr inbounds nuw %struct.H5HF_hdr_t, ptr %44, i32 0, i32 6
  %46 = load i8, ptr %45, align 1, !tbaa !60, !range !15, !noundef !16
  %47 = trunc i8 %46 to i1
  %48 = select i1 %47, i32 4, i32 0
  %49 = add i32 5, %48
  %50 = load ptr, ptr %8, align 8, !tbaa !22
  %51 = getelementptr inbounds nuw %struct.H5HF_hdr_t, ptr %50, i32 0, i32 32
  %52 = load i8, ptr %51, align 2, !tbaa !61
  %53 = zext i8 %52 to i32
  %54 = add i32 %49, %53
  %55 = load ptr, ptr %8, align 8, !tbaa !22
  %56 = getelementptr inbounds nuw %struct.H5HF_hdr_t, ptr %55, i32 0, i32 43
  %57 = load i8, ptr %56, align 1, !tbaa !62
  %58 = zext i8 %57 to i32
  %59 = add i32 %54, %58
  %60 = zext i32 %59 to i64
  store i64 %60, ptr %11, align 8, !tbaa !25
  %61 = load i64, ptr %10, align 8, !tbaa !25
  %62 = load i64, ptr %11, align 8, !tbaa !25
  %63 = sub i64 %61, %62
  %64 = load ptr, ptr %6, align 8, !tbaa !23
  %65 = getelementptr inbounds nuw %struct.H5HF_free_section_t, ptr %64, i32 0, i32 0
  %66 = getelementptr inbounds nuw %struct.H5FS_section_info_t, ptr %65, i32 0, i32 1
  %67 = load i64, ptr %66, align 8, !tbaa !37
  %68 = icmp eq i64 %63, %67
  br i1 %68, label %69, label %73

69:                                               ; preds = %38
  br label %70

70:                                               ; preds = %69
  store i32 1, ptr %9, align 4, !tbaa !11
  store i32 4, ptr %12, align 4
  br label %74

71:                                               ; No predecessors!
  br label %72

72:                                               ; preds = %71
  br label %73

73:                                               ; preds = %72, %38
  store i32 0, ptr %12, align 4
  br label %74

74:                                               ; preds = %70, %73
  call void @llvm.lifetime.end.p0(i64 8, ptr %11) #7
  call void @llvm.lifetime.end.p0(i64 8, ptr %10) #7
  %75 = load i32, ptr %12, align 4
  switch i32 %75, label %85 [
    i32 0, label %76
    i32 4, label %82
  ]

76:                                               ; preds = %74
  br label %81

77:                                               ; preds = %32
  br label %78

78:                                               ; preds = %77
  store i32 0, ptr %9, align 4, !tbaa !11
  br label %82

79:                                               ; No predecessors!
  br label %80

80:                                               ; preds = %79
  br label %81

81:                                               ; preds = %80, %76
  br label %82

82:                                               ; preds = %81, %74, %78
  br label %83

83:                                               ; preds = %82, %24
  %84 = load i32, ptr %9, align 4, !tbaa !11
  store i32 %84, ptr %3, align 4
  store i32 1, ptr %12, align 4
  br label %85

85:                                               ; preds = %83, %74
  call void @llvm.lifetime.end.p0(i64 4, ptr %9) #7
  call void @llvm.lifetime.end.p0(i64 8, ptr %8) #7
  call void @llvm.lifetime.end.p0(i64 8, ptr %7) #7
  call void @llvm.lifetime.end.p0(i64 8, ptr %6) #7
  %86 = load i32, ptr %3, align 4
  ret i32 %86
}