; Function Attrs: mustprogress nofree norecurse nosync nounwind willreturn memory(read, inaccessiblemem: none) uwtable
define internal range(i32 0, 2) i32 @H5HF__sect_single_can_shrink(ptr noundef readonly captures(none) %0, ptr noundef readonly captures(none) %1) #1 {
  %3 = load ptr, ptr %1, align 8, !tbaa !12
  %4 = load i8, ptr @H5HF_init_g, align 1, !tbaa !3, !range !7, !noundef !8
  %5 = trunc nuw i8 %4 to i1
  %6 = load i8, ptr @H5_libterm_g, align 1, !range !7
  %7 = trunc nuw i8 %6 to i1
  %8 = xor i1 %7, true
  %9 = select i1 %5, i1 true, i1 %8
  br i1 %9, label %10, label %32, !prof !9

10:                                               ; preds = %2
  %11 = getelementptr inbounds nuw i8, ptr %3, i64 304
  %12 = load i32, ptr %11, align 8, !tbaa !27
  %13 = icmp eq i32 %12, 0
  br i1 %13, label %14, label %32

14:                                               ; preds = %10
  %15 = getelementptr inbounds nuw i8, ptr %3, i64 272
  %16 = load i64, ptr %15, align 8, !tbaa !47
  %17 = getelementptr inbounds nuw i8, ptr %3, i64 259
  %18 = load i8, ptr %17, align 1, !tbaa !48, !range !7, !noundef !8
  %19 = trunc nuw i8 %18 to i1
  %.neg20 = select i1 %19, i64 -9, i64 -5
  %20 = getelementptr inbounds nuw i8, ptr %3, i64 618
  %21 = load i8, ptr %20, align 2, !tbaa !49
  %22 = zext i8 %21 to i64
  %23 = getelementptr inbounds nuw i8, ptr %3, i64 697
  %24 = load i8, ptr %23, align 1, !tbaa !50
  %25 = zext i8 %24 to i64
  %26 = add i64 %16, %.neg20
  %27 = add nuw nsw i64 %22, %25
  %28 = sub i64 %26, %27
  %29 = getelementptr inbounds nuw i8, ptr %0, i64 8
  %30 = load i64, ptr %29, align 8, !tbaa !24
  %31 = icmp eq i64 %28, %30
  %. = zext i1 %31 to i32
  br label %32

32:                                               ; preds = %14, %2, %10
  %.013 = phi i32 [ %., %14 ], [ 0, %2 ], [ 0, %10 ]
  ret i32 %.013
}